Certificate:
    Data:
        Version: 3 (0x2)
        Serial Number: 4097 (0x1001)
    Signature Algorithm: md5WithRSAEncryption
        Issuer: C=US, ST=Utah, L=Salt Lake City, O=University of Utah, OU=MSD, CN=certificate/emailAddress=qcopeland45@gmail.com
        Validity
            Not Before: Mar 24 19:31:04 2019 GMT
            Not After : Mar 23 19:31:04 2020 GMT
        Subject: C=US, ST=Utah, O=University of Utah, OU=MSD, CN=client/emailAddress=qcopeland45@gmail.com
        Subject Public Key Info:
            Public Key Algorithm: rsaEncryption
                Public-Key: (4096 bit)
                Modulus:
                    00:ce:de:64:83:00:07:30:4f:58:ca:57:80:5b:f8:
                    e8:73:e8:fe:fe:a1:4a:ad:79:ac:ae:79:dc:e0:6a:
                    8c:bd:52:29:9d:7a:74:43:5c:dd:17:00:59:a7:bd:
                    01:0b:e1:81:f1:c8:45:c8:b8:69:38:f7:2b:a0:39:
                    83:86:36:94:c9:cc:88:df:13:5f:3b:e8:d7:a9:33:
                    d0:33:ef:ba:ca:94:17:cd:75:c3:e8:c9:b6:1c:8a:
                    96:e2:cc:7b:ab:93:4c:42:bc:78:70:ec:ca:44:6c:
                    a1:e1:e3:25:9c:af:79:ad:43:12:08:2f:a5:d9:22:
                    4a:38:53:20:a5:fe:d3:97:53:c9:12:af:31:e5:cb:
                    a2:55:f9:f0:57:f0:53:e3:0c:12:89:46:04:80:55:
                    91:48:94:fa:1c:16:05:61:9e:62:f7:a6:15:62:6c:
                    d8:8c:c7:3d:8d:28:fb:45:4a:d8:0c:54:30:c9:e4:
                    85:59:ff:84:7b:24:5c:d6:29:c0:e1:62:b5:57:84:
                    30:e2:ed:e5:4a:86:ec:d3:11:06:d3:e4:0c:76:55:
                    4b:f5:85:b2:56:6f:83:26:26:4e:f4:c1:8f:ed:8c:
                    f9:ee:8f:a0:23:5d:45:c1:15:a4:92:91:ab:d6:6d:
                    5a:ac:2a:7d:26:e1:c1:80:77:89:16:a2:7a:0a:56:
                    75:c7:bb:26:ef:38:d2:82:15:59:4b:5f:10:e8:4d:
                    7e:7d:ac:74:b6:6b:fe:c5:94:58:cd:4a:eb:4b:67:
                    d7:22:23:a7:e4:91:3b:f2:c4:21:b4:17:fc:bb:fb:
                    4f:23:80:6e:6b:ab:22:56:11:e7:32:6d:6d:6b:db:
                    5a:b1:f4:cc:76:22:3e:2f:b9:a7:90:ac:a3:1a:7d:
                    c1:19:21:c9:73:c2:24:2c:d9:8e:35:f0:42:3b:af:
                    de:83:12:d2:df:4c:c7:e4:1c:dc:63:ef:2b:31:d8:
                    d9:fb:92:c2:77:ac:02:73:e2:7f:2a:80:95:47:5d:
                    63:21:6b:b3:24:f0:61:1c:a6:35:4a:4a:59:b7:36:
                    8e:62:3d:5b:99:28:e0:97:5d:81:c3:db:ec:93:e9:
                    01:61:a4:c0:fe:4c:bb:2f:24:9e:f0:42:19:74:9b:
                    a5:cb:e9:4d:3c:82:78:24:b8:f9:bd:81:b0:a1:dc:
                    b3:ff:d6:93:29:05:aa:55:ab:e5:5c:8f:69:21:65:
                    76:15:c8:4f:dd:3e:2b:eb:ce:11:67:05:fe:37:d2:
                    cb:aa:94:2b:d7:cb:c9:f4:40:aa:7b:21:75:02:27:
                    57:00:78:de:a4:a2:17:9a:a2:3d:0f:57:8f:fb:29:
                    99:b7:75:e8:05:61:f9:ae:bf:36:59:77:c1:34:8a:
                    02:6e:91
                Exponent: 65537 (0x10001)
        X509v3 extensions:
            X509v3 Basic Constraints: 
                CA:FALSE
            Netscape Comment: 
                OpenSSL Generated Certificate
            X509v3 Subject Key Identifier: 
                6B:6F:07:74:D1:B9:A4:A0:90:29:16:7B:43:3B:09:17:B7:89:C5:4C
            X509v3 Authority Key Identifier: 
                DirName:/C=US/ST=Utah/L=Salt Lake City/O=University of Utah/OU=MSD/CN=certificate/emailAddress=qcopeland45@gmail.com
                serial:C9:64:9E:A2:B3:27:55:B1

    Signature Algorithm: md5WithRSAEncryption
         88:db:59:54:32:95:7e:0b:16:e8:04:6e:ae:2d:db:c8:b4:c4:
         c8:32:f7:74:53:8e:c2:8e:31:40:b6:10:b4:16:f0:44:9b:ae:
         5e:0d:5b:69:ba:f7:45:ae:82:df:e5:aa:9f:a2:0b:0c:cc:23:
         d4:33:25:89:92:2b:3c:bd:55:9b:64:a3:5a:6f:1b:69:b1:6b:
         66:df:03:7e:b3:bb:46:f7:9f:c8:97:d0:c1:f9:5f:22:63:9a:
         51:0d:56:4d:ca:b3:0e:01:ef:df:d5:29:7d:3d:2f:13:0d:e7:
         bb:3c:85:f5:1b:35:4e:e9:da:1b:4a:67:3a:f4:88:f9:50:da:
         23:c1:a3:8a:48:ad:3f:36:59:df:a7:59:ed:a8:ec:1b:4f:27:
         a7:7f:41:9e:33:3c:f2:16:61:ec:78:3f:3c:75:de:20:71:9c:
         7a:3b:6f:53:a4:3e:90:24:20:9c:a1:77:bc:d8:2b:66:13:39:
         af:5e:9b:eb:3e:fe:d2:0e:bf:3e:a7:c3:ab:2f:be:cb:20:a6:
         e0:50:d5:55:15:2b:28:09:23:72:be:9b:47:4d:9e:85:6a:fe:
         35:26:ff:8e:d0:39:6f:db:85:a5:b5:4b:57:0b:ec:66:87:04:
         d3:29:06:f5:85:8e:fe:95:f8:66:20:a7:df:b8:08:9a:b2:81:
         16:17:71:cd:12:50:87:91:13:d9:40:ab:c1:e4:a2:f1:05:06:
         a0:4f:19:4c:69:7e:d0:b5:70:72:38:60:b1:57:59:87:7f:64:
         ec:67:e0:1f:b3:09:f6:3b:e9:c1:80:cd:70:3e:2f:73:83:b9:
         3e:26:81:9d:f5:2e:22:3d:5e:b2:b3:77:b8:9d:f1:ea:75:53:
         6a:f1:0c:9b:c7:2c:a2:21:b2:9f:67:fd:ab:26:6d:83:f6:6d:
         20:8c:5e:47:ae:66:08:9d:62:8f:cd:f3:13:0d:5c:d8:91:6c:
         5d:5c:33:af:db:ab:27:d9:5f:05:03:80:ce:f7:a5:18:9e:fe:
         24:07:66:5a:e5:6a:1a:1c:27:70:5e:ab:d4:3c:7b:26:32:90:
         a8:04:d8:63:b9:4d:67:8f:be:18:cd:36:33:42:07:bc:fa:fe:
         04:db:fd:24:bd:95:f9:d7:af:a0:c4:24:e5:ae:f6:c5:d3:ec:
         88:d6:72:1b:8a:88:2c:55:3a:b1:dd:1d:2b:a7:0c:6f:49:87:
         97:f0:e1:23:cb:3a:93:b0:e6:c4:f3:58:6e:a4:14:b9:67:9f:
         45:70:61:b5:d5:09:79:6f:b7:56:a3:0b:43:74:7e:a2:8b:79:
         63:7d:1e:6b:fe:4c:4b:23:3b:2d:9d:c5:c9:88:89:eb:23:0c:
         61:35:a5:27:61:fd:49:fb
-----BEGIN CERTIFICATE-----
MIIGszCCBJugAwIBAgICEAEwDQYJKoZIhvcNAQEEBQAwgZwxCzAJBgNVBAYTAlVT
MQ0wCwYDVQQIDARVdGFoMRcwFQYDVQQHDA5TYWx0IExha2UgQ2l0eTEbMBkGA1UE
CgwSVW5pdmVyc2l0eSBvZiBVdGFoMQwwCgYDVQQLDANNU0QxFDASBgNVBAMMC2Nl
cnRpZmljYXRlMSQwIgYJKoZIhvcNAQkBFhVxY29wZWxhbmQ0NUBnbWFpbC5jb20w
HhcNMTkwMzI0MTkzMTA0WhcNMjAwMzIzMTkzMTA0WjB+MQswCQYDVQQGEwJVUzEN
MAsGA1UECAwEVXRhaDEbMBkGA1UECgwSVW5pdmVyc2l0eSBvZiBVdGFoMQwwCgYD
VQQLDANNU0QxDzANBgNVBAMMBmNsaWVudDEkMCIGCSqGSIb3DQEJARYVcWNvcGVs
YW5kNDVAZ21haWwuY29tMIICIjANBgkqhkiG9w0BAQEFAAOCAg8AMIICCgKCAgEA
zt5kgwAHME9YyleAW/joc+j+/qFKrXmsrnnc4GqMvVIpnXp0Q1zdFwBZp70BC+GB
8chFyLhpOPcroDmDhjaUycyI3xNfO+jXqTPQM++6ypQXzXXD6Mm2HIqW4sx7q5NM
Qrx4cOzKRGyh4eMlnK95rUMSCC+l2SJKOFMgpf7Tl1PJEq8x5cuiVfnwV/BT4wwS
iUYEgFWRSJT6HBYFYZ5i96YVYmzYjMc9jSj7RUrYDFQwyeSFWf+EeyRc1inA4WK1
V4Qw4u3lSobs0xEG0+QMdlVL9YWyVm+DJiZO9MGP7Yz57o+gI11FwRWkkpGr1m1a
rCp9JuHBgHeJFqJ6ClZ1x7sm7zjSghVZS18Q6E1+fax0tmv+xZRYzUrrS2fXIiOn
5JE78sQhtBf8u/tPI4Bua6siVhHnMm1ta9tasfTMdiI+L7mnkKyjGn3BGSHJc8Ik
LNmONfBCO6/egxLS30zH5BzcY+8rMdjZ+5LCd6wCc+J/KoCVR11jIWuzJPBhHKY1
SkpZtzaOYj1bmSjgl12Bw9vsk+kBYaTA/ky7LySe8EIZdJuly+lNPIJ4JLj5vYGw
odyz/9aTKQWqVavlXI9pIWV2FchP3T4r684RZwX+N9LLqpQr18vJ9ECqeyF1AidX
AHjepKIXmqI9D1eP+ymZt3XoBWH5rr82WXfBNIoCbpECAwEAAaOCARowggEWMAkG
A1UdEwQCMAAwLAYJYIZIAYb4QgENBB8WHU9wZW5TU0wgR2VuZXJhdGVkIENlcnRp
ZmljYXRlMB0GA1UdDgQWBBRrbwd00bmkoJApFntDOwkXt4nFTDCBuwYDVR0jBIGz
MIGwoYGipIGfMIGcMQswCQYDVQQGEwJVUzENMAsGA1UECAwEVXRhaDEXMBUGA1UE
BwwOU2FsdCBMYWtlIENpdHkxGzAZBgNVBAoMElVuaXZlcnNpdHkgb2YgVXRhaDEM
MAoGA1UECwwDTVNEMRQwEgYDVQQDDAtjZXJ0aWZpY2F0ZTEkMCIGCSqGSIb3DQEJ
ARYVcWNvcGVsYW5kNDVAZ21haWwuY29tggkAyWSeorMnVbEwDQYJKoZIhvcNAQEE
BQADggIBAIjbWVQylX4LFugEbq4t28i0xMgy93RTjsKOMUC2ELQW8ESbrl4NW2m6
90Wugt/lqp+iCwzMI9QzJYmSKzy9VZtko1pvG2mxa2bfA36zu0b3n8iX0MH5XyJj
mlENVk3Ksw4B79/VKX09LxMN57s8hfUbNU7p2htKZzr0iPlQ2iPBo4pIrT82Wd+n
We2o7BtPJ6d/QZ4zPPIWYex4Pzx13iBxnHo7b1OkPpAkIJyhd7zYK2YTOa9em+s+
/tIOvz6nw6svvssgpuBQ1VUVKygJI3K+m0dNnoVq/jUm/47QOW/bhaW1S1cL7GaH
BNMpBvWFjv6V+GYgp9+4CJqygRYXcc0SUIeRE9lAq8HkovEFBqBPGUxpftC1cHI4
YLFXWYd/ZOxn4B+zCfY76cGAzXA+L3ODuT4mgZ31LiI9XrKzd7id8ep1U2rxDJvH
LKIhsp9n/asmbYP2bSCMXkeuZgidYo/N8xMNXNiRbF1cM6/bqyfZXwUDgM73pRie
/iQHZlrlahocJ3Beq9Q8eyYykKgE2GO5TWePvhjNNjNCB7z6/gTb/SS9lfnXr6DE
JOWu9sXT7IjWchuKiCxVOrHdHSunDG9Jh5fw4SPLOpOw5sTzWG6kFLlnn0VwYbXV
CXlvt1ajC0N0fqKLeWN9Hmv+TEsjOy2dxcmIiesjDGE1pSdh/Un7
-----END CERTIFICATE-----
