Certificate:
    Data:
        Version: 3 (0x2)
        Serial Number: 4096 (0x1000)
    Signature Algorithm: md5WithRSAEncryption
        Issuer: C=US, ST=Utah, L=Salt Lake City, O=University of Utah, OU=MSD, CN=certificate/emailAddress=qcopeland45@gmail.com
        Validity
            Not Before: Mar 19 17:45:19 2019 GMT
            Not After : Mar 18 17:45:19 2020 GMT
        Subject: C=US, ST=Utah, O=University of Utah, OU=MSD, CN=server/emailAddress=qcopeland45@gmail.com
        Subject Public Key Info:
            Public Key Algorithm: rsaEncryption
                Public-Key: (4096 bit)
                Modulus:
                    00:cd:a5:91:3b:6e:34:f8:a2:4b:3a:6f:85:81:c5:
                    75:af:20:da:2a:d8:14:93:6b:3e:1e:cd:f9:f3:7f:
                    0e:2d:9b:e1:7a:9b:aa:f8:2d:6d:35:75:08:b0:a8:
                    17:7f:42:80:f6:f1:8b:b8:5f:85:85:44:e5:c2:58:
                    85:01:f7:de:3d:be:fa:fb:69:f2:28:c2:82:75:d2:
                    ae:a2:18:d5:68:df:94:38:6f:44:a5:bc:0c:51:a3:
                    b4:72:bb:4c:29:16:03:23:1f:df:79:53:bc:65:9a:
                    84:b3:02:c0:99:7d:6d:81:32:01:b2:0c:da:25:56:
                    58:9d:12:56:d8:3c:85:19:dc:a9:7b:3f:ac:6b:27:
                    42:b6:31:50:f1:75:6e:cf:a3:7e:c5:ad:35:38:ca:
                    8d:ec:23:74:bf:ca:e8:aa:84:d6:f6:7f:8d:54:d2:
                    ce:dc:1f:80:fe:e5:51:09:74:d8:58:c9:47:1a:b3:
                    fa:53:34:61:b6:35:02:cb:c9:39:57:79:05:f7:2e:
                    2e:97:46:9a:44:57:1c:ba:6a:8b:36:9b:63:af:c4:
                    5b:32:f5:53:38:68:c2:e9:ea:cb:b6:9c:84:c7:59:
                    5f:df:ea:12:99:03:25:98:1d:63:55:dd:6b:0d:83:
                    c5:e2:9d:73:ff:e5:cd:3d:2f:58:20:34:f0:4c:25:
                    40:7f:9f:2a:4c:02:bc:32:d7:7d:f1:fe:30:12:d5:
                    96:6b:81:3d:e7:e7:03:9b:21:ae:0b:1e:09:ae:00:
                    cc:83:ea:59:de:34:4f:93:7f:7d:8b:4c:f5:1a:72:
                    08:b9:11:a7:58:af:8e:a3:4d:d7:bc:87:a6:29:ec:
                    7b:e0:34:cc:e0:41:fd:c7:97:0e:09:e8:3d:16:1a:
                    eb:63:b4:c6:b5:9a:2a:88:83:c2:d3:59:44:70:89:
                    b4:51:2b:38:54:7b:74:97:10:ae:35:3b:97:f9:a5:
                    18:e2:a7:ad:bd:44:61:51:10:d8:43:d3:4f:4c:97:
                    cf:8d:dd:42:42:3b:5d:a0:18:6e:8f:45:8d:12:35:
                    a3:41:69:e7:7b:ca:72:28:5f:90:7c:f6:07:8a:3e:
                    3f:07:7c:2d:43:41:19:8b:d5:25:d0:98:f5:2f:73:
                    a0:23:20:1b:e2:58:49:3f:4f:3d:ce:59:57:48:4e:
                    ea:c4:66:bb:c5:7a:9a:c7:1d:30:f8:d7:9d:71:e3:
                    63:60:f5:3b:c8:8b:87:ca:dd:82:5b:39:5a:fb:23:
                    5a:01:ff:f0:b6:2c:45:75:0b:95:25:2b:65:a6:7a:
                    fd:f8:de:05:63:3c:09:ec:19:a9:2e:94:15:5a:85:
                    5d:50:22:2b:66:d7:54:ab:81:5c:82:79:f5:75:20:
                    49:b9:b5
                Exponent: 65537 (0x10001)
        X509v3 extensions:
            X509v3 Basic Constraints: 
                CA:FALSE
            Netscape Comment: 
                OpenSSL Generated Certificate
            X509v3 Subject Key Identifier: 
                DB:F4:3F:EE:87:EE:0D:9C:18:21:4B:B1:CF:75:42:C7:5B:19:C2:01
            X509v3 Authority Key Identifier: 
                DirName:/C=US/ST=Utah/L=Salt Lake City/O=University of Utah/OU=MSD/CN=certificate/emailAddress=qcopeland45@gmail.com
                serial:C9:64:9E:A2:B3:27:55:B1

    Signature Algorithm: md5WithRSAEncryption
         8f:98:c1:b6:ec:47:86:97:aa:fa:c7:9a:90:d1:d7:e9:12:82:
         8b:4e:a9:c9:8e:79:40:72:4d:08:50:36:e9:0e:b4:78:b4:2b:
         89:7b:f4:59:30:0f:5f:09:d7:26:95:96:07:71:ea:db:d7:a6:
         5a:3d:ac:4f:01:16:c1:e1:5b:80:5d:75:ae:36:eb:3a:ba:30:
         9f:8e:d0:50:f1:9e:14:9c:bb:10:db:76:48:27:ca:40:99:83:
         db:2a:61:fd:be:71:c8:c6:3d:d8:f1:b4:97:2b:8e:35:be:d6:
         ae:19:cd:89:7b:a0:7b:a1:2b:67:be:a6:48:64:51:8e:21:38:
         5a:00:d4:70:ad:f8:73:fc:88:f8:b0:50:07:e0:59:1c:2b:5d:
         dd:d5:0f:97:d7:12:72:e5:7d:98:4a:d9:56:dc:e6:d4:20:6c:
         e2:8e:00:7b:a9:6b:b3:0e:99:d9:cc:7d:d2:a0:39:e9:9a:0d:
         df:49:7d:0a:cc:18:1c:55:c9:72:c5:3d:20:67:73:3d:1f:4c:
         cc:cd:b1:7d:56:22:aa:57:cb:2e:f8:96:c7:ee:b0:f1:b2:f1:
         23:67:6a:93:cb:e8:5f:58:0b:7c:cc:02:3a:2d:fb:ff:17:a5:
         3c:7c:69:c1:f9:02:19:3f:9f:0d:e4:9e:fb:76:35:43:1a:58:
         2a:b0:19:01:2d:6c:93:39:6b:c0:ef:4b:30:ec:85:ee:59:35:
         0b:65:3a:9c:1d:6d:f3:f7:cf:49:98:fd:d5:10:f5:4c:af:0a:
         99:ed:d6:cd:cc:82:f1:c5:2c:f1:cc:ca:9a:12:6d:01:21:83:
         3e:e5:66:20:44:60:46:10:7e:e8:d9:3c:43:3b:61:24:d7:e2:
         1b:37:1f:d0:5d:5c:e7:c9:20:20:83:cf:f3:56:c0:e4:d9:43:
         20:dd:4c:77:f1:a8:dd:0b:c5:a3:a3:48:40:12:2f:bc:b1:dd:
         fd:91:33:6d:ae:6a:a7:e9:30:a1:bd:bd:dd:2d:e2:08:75:42:
         c9:ca:91:96:da:76:01:12:98:d0:ae:bf:b1:be:22:4e:4b:47:
         ba:f5:c8:f1:8e:8d:cf:f3:ad:a9:dd:9b:6d:b7:cc:49:15:8a:
         6b:8d:28:1d:19:c2:db:b1:48:f0:6c:82:ea:74:98:c2:67:fc:
         25:cd:2f:b5:e3:6e:33:68:3d:3a:54:e6:5e:69:7a:e6:eb:f0:
         b7:76:da:72:74:69:0e:32:3d:cb:be:76:f2:ef:5a:77:70:e2:
         09:66:45:de:57:bd:0e:cc:ad:34:02:7b:37:5d:01:c0:e0:dc:
         82:bd:3a:78:0a:26:b7:45:7c:64:9a:1d:9a:b4:ff:59:9f:aa:
         a0:fd:d8:7d:c8:93:af:7a
-----BEGIN CERTIFICATE-----
MIIGszCCBJugAwIBAgICEAAwDQYJKoZIhvcNAQEEBQAwgZwxCzAJBgNVBAYTAlVT
MQ0wCwYDVQQIDARVdGFoMRcwFQYDVQQHDA5TYWx0IExha2UgQ2l0eTEbMBkGA1UE
CgwSVW5pdmVyc2l0eSBvZiBVdGFoMQwwCgYDVQQLDANNU0QxFDASBgNVBAMMC2Nl
cnRpZmljYXRlMSQwIgYJKoZIhvcNAQkBFhVxY29wZWxhbmQ0NUBnbWFpbC5jb20w
HhcNMTkwMzE5MTc0NTE5WhcNMjAwMzE4MTc0NTE5WjB+MQswCQYDVQQGEwJVUzEN
MAsGA1UECAwEVXRhaDEbMBkGA1UECgwSVW5pdmVyc2l0eSBvZiBVdGFoMQwwCgYD
VQQLDANNU0QxDzANBgNVBAMMBnNlcnZlcjEkMCIGCSqGSIb3DQEJARYVcWNvcGVs
YW5kNDVAZ21haWwuY29tMIICIjANBgkqhkiG9w0BAQEFAAOCAg8AMIICCgKCAgEA
zaWRO240+KJLOm+FgcV1ryDaKtgUk2s+Hs35838OLZvhepuq+C1tNXUIsKgXf0KA
9vGLuF+FhUTlwliFAffePb76+2nyKMKCddKuohjVaN+UOG9EpbwMUaO0crtMKRYD
Ix/feVO8ZZqEswLAmX1tgTIBsgzaJVZYnRJW2DyFGdypez+saydCtjFQ8XVuz6N+
xa01OMqN7CN0v8roqoTW9n+NVNLO3B+A/uVRCXTYWMlHGrP6UzRhtjUCy8k5V3kF
9y4ul0aaRFccumqLNptjr8RbMvVTOGjC6erLtpyEx1lf3+oSmQMlmB1jVd1rDYPF
4p1z/+XNPS9YIDTwTCVAf58qTAK8Mtd98f4wEtWWa4E95+cDmyGuCx4JrgDMg+pZ
3jRPk399i0z1GnIIuRGnWK+Oo03XvIemKex74DTM4EH9x5cOCeg9FhrrY7TGtZoq
iIPC01lEcIm0USs4VHt0lxCuNTuX+aUY4qetvURhURDYQ9NPTJfPjd1CQjtdoBhu
j0WNEjWjQWnne8pyKF+QfPYHij4/B3wtQ0EZi9Ul0Jj1L3OgIyAb4lhJP089zllX
SE7qxGa7xXqaxx0w+NedceNjYPU7yIuHyt2CWzla+yNaAf/wtixFdQuVJStlpnr9
+N4FYzwJ7BmpLpQVWoVdUCIrZtdUq4Fcgnn1dSBJubUCAwEAAaOCARowggEWMAkG
A1UdEwQCMAAwLAYJYIZIAYb4QgENBB8WHU9wZW5TU0wgR2VuZXJhdGVkIENlcnRp
ZmljYXRlMB0GA1UdDgQWBBTb9D/uh+4NnBghS7HPdULHWxnCATCBuwYDVR0jBIGz
MIGwoYGipIGfMIGcMQswCQYDVQQGEwJVUzENMAsGA1UECAwEVXRhaDEXMBUGA1UE
BwwOU2FsdCBMYWtlIENpdHkxGzAZBgNVBAoMElVuaXZlcnNpdHkgb2YgVXRhaDEM
MAoGA1UECwwDTVNEMRQwEgYDVQQDDAtjZXJ0aWZpY2F0ZTEkMCIGCSqGSIb3DQEJ
ARYVcWNvcGVsYW5kNDVAZ21haWwuY29tggkAyWSeorMnVbEwDQYJKoZIhvcNAQEE
BQADggIBAI+YwbbsR4aXqvrHmpDR1+kSgotOqcmOeUByTQhQNukOtHi0K4l79Fkw
D18J1yaVlgdx6tvXplo9rE8BFsHhW4Bdda426zq6MJ+O0FDxnhScuxDbdkgnykCZ
g9sqYf2+ccjGPdjxtJcrjjW+1q4ZzYl7oHuhK2e+pkhkUY4hOFoA1HCt+HP8iPiw
UAfgWRwrXd3VD5fXEnLlfZhK2Vbc5tQgbOKOAHupa7MOmdnMfdKgOemaDd9JfQrM
GBxVyXLFPSBncz0fTMzNsX1WIqpXyy74lsfusPGy8SNnapPL6F9YC3zMAjot+/8X
pTx8acH5Ahk/nw3knvt2NUMaWCqwGQEtbJM5a8DvSzDshe5ZNQtlOpwdbfP3z0mY
/dUQ9UyvCpnt1s3MgvHFLPHMypoSbQEhgz7lZiBEYEYQfujZPEM7YSTX4hs3H9Bd
XOfJICCDz/NWwOTZQyDdTHfxqN0LxaOjSEASL7yx3f2RM22uaqfpMKG9vd0t4gh1
QsnKkZbadgESmNCuv7G+Ik5LR7r1yPGOjc/zrandm223zEkVimuNKB0ZwtuxSPBs
gup0mMJn/CXNL7XjbjNoPTpU5l5peubr8Ld22nJ0aQ4yPcu+dvLvWndw4glmRd5X
vQ7MrTQCezddAcDg3IK9OngKJrdFfGSaHZq0/1mfqqD92H3Ik696
-----END CERTIFICATE-----
